target datalayout = "e-m:e-p270:32:32-p271:32:32-p272:64:64-i64:64-i128:128-f80:128-n8:16:32:64-S128"
target triple = "x86_64-unknown-linux-gnu"

%"class.v8::IndirectHandleBase" = type { ptr }
%"class.node::MemoryRetainer" = type { ptr }
%"struct.std::__detail::_Hash_node_base" = type { ptr }
%"struct.std::__detail::_Prime_rehash_policy" = type { float, i64 }
%"class.std::__shared_count" = type { ptr }
%"class.std::__cxx11::basic_string" = type { %"struct.std::__cxx11::basic_string<char>::_Alloc_hider", i64, %union.anon.120 }
%"struct.std::__cxx11::basic_string<char>::_Alloc_hider" = type { ptr }
%union.anon.120 = type { i64, [8 x i8] }
%"class.v8::Local.269" = type { %"class.v8::LocalBase.270" }
%"class.v8::LocalBase.270" = type { %"class.v8::IndirectHandleBase" }
%"class.v8::Local.271" = type { %"class.v8::LocalBase.272" }
%"class.v8::LocalBase.272" = type { %"class.v8::IndirectHandleBase" }
%"class.v8::Local.321" = type { %"class.v8::LocalBase.322" }
%"class.v8::LocalBase.322" = type { %"class.v8::IndirectHandleBase" }
%"class.node::IsolateData" = type { %"class.node::MemoryRetainer", i64, %"class.std::unordered_map.273", %"class.v8::Eternal", %"class.v8::Eternal", %"class.v8::Eternal", %"class.v8::Eternal", %"class.v8::Eternal", %"class.v8::Eternal", %"class.v8::Eternal", %"class.v8::Eternal", %"class.v8::Eternal", %"class.v8::Eternal", %"class.v8::Eternal", %"class.v8::Eternal", %"class.v8::Eternal.293", %"class.v8::Eternal.293", %"class.v8::Eternal.293", %"class.v8::Eternal.293", %"class.v8::Eternal.293", %"class.v8::Eternal.293", %"class.v8::Eternal.293", %"class.v8::Eternal.293", %"class.v8::Eternal.293", %"class.v8::Eternal.293", %"class.v8::Eternal.293", %"class.v8::Eternal.293", %"class.v8::Eternal.293", %"class.v8::Eternal.293", %"class.v8::Eternal.293", %"class.v8::Eternal.294", %"class.v8::Eternal.294", %"class.v8::Eternal.294", %"class.v8::Eternal.294", %"class.v8::Eternal.294", %"class.v8::Eternal.294", %"class.v8::Eternal.294", %"class.v8::Eternal.294", %"class.v8::Eternal.294", %"class.v8::Eternal.294", %"class.v8::Eternal.294", %"class.v8::Eternal.294", %"class.v8::Eternal.294", %"class.v8::Eternal.294", %"class.v8::Eternal.294", %"class.v8::Eternal.294", %"class.v8::Eternal.294", %"class.v8::Eternal.294", %"class.v8::Eternal.294", %"class.v8::Eternal.294", %"class.v8::Eternal.294", %"class.v8::Eternal.294", %"class.v8::Eternal.294", %"class.v8::Eternal.294", %"class.v8::Eternal.294", %"class.v8::Eternal.294", %"class.v8::Eternal.294", %"class.v8::Eternal.294", %"class.v8::Eternal.294", %"class.v8::Eternal.294", %"class.v8::Eternal.294", %"class.v8::Eternal.294", %"class.v8::Eternal.294", %"class.v8::Eternal.294", %"class.v8::Eternal.294", %"class.v8::Eternal.294", %"class.v8::Eternal.294", %"class.v8::Eternal.294", %"class.v8::Eternal.294", %"class.v8::Eternal.294", %"class.v8::Eternal.294", %"class.v8::Eternal.294", %"class.v8::Eternal.294", %"class.v8::Eternal.294", %"class.v8::Eternal.294", %"class.v8::Eternal.294", %"class.v8::Eternal.294", %"class.v8::Eternal.294", %"class.v8::Eternal.294", %"class.v8::Eternal.294", %"class.v8::Eternal.294", %"class.v8::Eternal.294", %"class.v8::Eternal.294", %"class.v8::Eternal.294", %"class.v8::Eternal.294", %"class.v8::Eternal.294", %"class.v8::Eternal.294", %"class.v8::Eternal.294", %"class.v8::Eternal.294", %"class.v8::Eternal.294", %"class.v8::Eternal.294", %"class.v8::Eternal.294", %"class.v8::Eternal.294", %"class.v8::Eternal.294", %"class.v8::Eternal.294", %"class.v8::Eternal.294", %"class.v8::Eternal.294", %"class.v8::Eternal.294", %"class.v8::Eternal.294", %"class.v8::Eternal.294", %"class.v8::Eternal.294", %"class.v8::Eternal.294", %"class.v8::Eternal.294", %"class.v8::Eternal.294", %"class.v8::Eternal.294", %"class.v8::Eternal.294", %"class.v8::Eternal.294", %"class.v8::Eternal.294", %"class.v8::Eternal.294", %"class.v8::Eternal.294", %"class.v8::Eternal.294", %"class.v8::Eternal.294", %"class.v8::Eternal.294", %"class.v8::Eternal.294", %"class.v8::Eternal.294", %"class.v8::Eternal.294", %"class.v8::Eternal.294", %"class.v8::Eternal.294", %"class.v8::Eternal.294", %"class.v8::Eternal.294", %"class.v8::Eternal.294", %"class.v8::Eternal.294", %"class.v8::Eternal.294", %"class.v8::Eternal.294", %"class.v8::Eternal.294", %"class.v8::Eternal.294", %"class.v8::Eternal.294", %"class.v8::Eternal.294", %"class.v8::Eternal.294", %"class.v8::Eternal.294", %"class.v8::Eternal.294", %"class.v8::Eternal.294", %"class.v8::Eternal.294", %"class.v8::Eternal.294", %"class.v8::Eternal.294", %"class.v8::Eternal.294", %"class.v8::Eternal.294", %"class.v8::Eternal.294", %"class.v8::Eternal.294", %"class.v8::Eternal.294", %"class.v8::Eternal.294", %"class.v8::Eternal.294", %"class.v8::Eternal.294", %"class.v8::Eternal.294", %"class.v8::Eternal.294", %"class.v8::Eternal.294", %"class.v8::Eternal.294", %"class.v8::Eternal.294", %"class.v8::Eternal.294", %"class.v8::Eternal.294", %"class.v8::Eternal.294", %"class.v8::Eternal.294", %"class.v8::Eternal.294", %"class.v8::Eternal.294", %"class.v8::Eternal.294", %"class.v8::Eternal.294", %"class.v8::Eternal.294", %"class.v8::Eternal.294", %"class.v8::Eternal.294", %"class.v8::Eternal.294", %"class.v8::Eternal.294", %"class.v8::Eternal.294", %"class.v8::Eternal.294", %"class.v8::Eternal.294", %"class.v8::Eternal.294", %"class.v8::Eternal.294", %"class.v8::Eternal.294", %"class.v8::Eternal.294", %"class.v8::Eternal.294", %"class.v8::Eternal.294", %"class.v8::Eternal.294", %"class.v8::Eternal.294", %"class.v8::Eternal.294", %"class.v8::Eternal.294", %"class.v8::Eternal.294", %"class.v8::Eternal.294", %"class.v8::Eternal.294", %"class.v8::Eternal.294", %"class.v8::Eternal.294", %"class.v8::Eternal.294", %"class.v8::Eternal.294", %"class.v8::Eternal.294", %"class.v8::Eternal.294", %"class.v8::Eternal.294", %"class.v8::Eternal.294", %"class.v8::Eternal.294", %"class.v8::Eternal.294", %"class.v8::Eternal.294", %"class.v8::Eternal.294", %"class.v8::Eternal.294", %"class.v8::Eternal.294", %"class.v8::Eternal.294", %"class.v8::Eternal.294", %"class.v8::Eternal.294", %"class.v8::Eternal.294", %"class.v8::Eternal.294", %"class.v8::Eternal.294", %"class.v8::Eternal.294", %"class.v8::Eternal.294", %"class.v8::Eternal.294", %"class.v8::Eternal.294", %"class.v8::Eternal.294", %"class.v8::Eternal.294", %"class.v8::Eternal.294", %"class.v8::Eternal.294", %"class.v8::Eternal.294", %"class.v8::Eternal.294", %"class.v8::Eternal.294", %"class.v8::Eternal.294", %"class.v8::Eternal.294", %"class.v8::Eternal.294", %"class.v8::Eternal.294", %"class.v8::Eternal.294", %"class.v8::Eternal.294", %"class.v8::Eternal.294", %"class.v8::Eternal.294", %"class.v8::Eternal.294", %"class.v8::Eternal.294", %"class.v8::Eternal.294", %"class.v8::Eternal.294", %"class.v8::Eternal.294", %"class.v8::Eternal.294", %"class.v8::Eternal.294", %"class.v8::Eternal.294", %"class.v8::Eternal.294", %"class.v8::Eternal.294", %"class.v8::Eternal.294", %"class.v8::Eternal.294", %"class.v8::Eternal.294", %"class.v8::Eternal.294", %"class.v8::Eternal.294", %"class.v8::Eternal.294", %"class.v8::Eternal.294", %"class.v8::Eternal.294", %"class.v8::Eternal.294", %"class.v8::Eternal.294", %"class.v8::Eternal.294", %"class.v8::Eternal.294", %"class.v8::Eternal.294", %"class.v8::Eternal.294", %"class.v8::Eternal.294", %"class.v8::Eternal.294", %"class.v8::Eternal.294", %"class.v8::Eternal.294", %"class.v8::Eternal.294", %"class.v8::Eternal.294", %"class.v8::Eternal.294", %"class.v8::Eternal.294", %"class.v8::Eternal.294", %"class.v8::Eternal.294", %"class.v8::Eternal.294", %"class.v8::Eternal.294", %"class.v8::Eternal.294", %"class.v8::Eternal.294", %"class.v8::Eternal.294", %"class.v8::Eternal.294", %"class.v8::Eternal.294", %"class.v8::Eternal.294", %"class.v8::Eternal.294", %"class.v8::Eternal.294", %"class.v8::Eternal.294", %"class.v8::Eternal.294", %"class.v8::Eternal.294", %"class.v8::Eternal.294", %"class.v8::Eternal.294", %"class.v8::Eternal.294", %"class.v8::Eternal.294", %"class.v8::Eternal.294", %"class.v8::Eternal.294", %"class.v8::Eternal.294", %"class.v8::Eternal.294", %"class.v8::Eternal.294", %"class.v8::Eternal.294", %"class.v8::Eternal.294", %"class.v8::Eternal.294", %"class.v8::Eternal.294", %"class.v8::Eternal.294", %"class.v8::Eternal.294", %"class.v8::Eternal.294", %"class.v8::Eternal.294", %"class.v8::Eternal.294", %"class.v8::Eternal.294", %"class.v8::Eternal.294", %"class.v8::Eternal.294", %"class.v8::Eternal.294", %"class.v8::Eternal.294", %"class.v8::Eternal.294", %"class.v8::Eternal.294", %"class.v8::Eternal.294", %"class.v8::Eternal.294", %"class.v8::Eternal.294", %"class.v8::Eternal.294", %"class.v8::Eternal.294", %"class.v8::Eternal.294", %"class.v8::Eternal.294", %"class.v8::Eternal.294", %"class.v8::Eternal.294", %"class.v8::Eternal.294", %"class.v8::Eternal.294", %"class.v8::Eternal.294", %"class.v8::Eternal.294", %"class.v8::Eternal.294", %"class.v8::Eternal.294", %"class.v8::Eternal.294", %"class.v8::Eternal.294", %"class.v8::Eternal.294", %"class.v8::Eternal.294", %"class.v8::Eternal.294", %"class.v8::Eternal.294", %"class.v8::Eternal.294", %"class.v8::Eternal.294", %"class.v8::Eternal.294", %"class.v8::Eternal.294", %"class.v8::Eternal.294", %"class.v8::Eternal.294", %"class.v8::Eternal.295", %"class.v8::Eternal.295", %"class.v8::Eternal.296", %"class.v8::Eternal.295", %"class.v8::Eternal.295", %"class.v8::Eternal.295", %"class.v8::Eternal.296", %"class.v8::Eternal.296", %"class.v8::Eternal.295", %"class.v8::Eternal.296", %"class.v8::Eternal.295", %"class.v8::Eternal.296", %"class.v8::Eternal.296", %"class.v8::Eternal.296", %"class.v8::Eternal.295", %"class.v8::Eternal.296", %"class.v8::Eternal.296", %"class.v8::Eternal.295", %"class.v8::Eternal.295", %"class.v8::Eternal.296", %"class.v8::Eternal.296", %"class.v8::Eternal.296", %"class.v8::Eternal.296", %"class.v8::Eternal.295", %"class.v8::Eternal.295", %"class.v8::Eternal.295", %"class.v8::Eternal.295", %"class.v8::Eternal.295", %"class.v8::Eternal.295", %"class.v8::Eternal.296", %"class.v8::Eternal.295", %"class.v8::Eternal.295", %"class.v8::Eternal.295", %"class.v8::Eternal.296", %"class.v8::Eternal.295", %"class.v8::Eternal.295", %"class.v8::Eternal.296", %"class.v8::Eternal.295", %"class.v8::Eternal.295", %"class.v8::Eternal.296", %"class.v8::Eternal.295", %"class.v8::Eternal.295", %"class.v8::Eternal.296", %"class.v8::Eternal.296", %"class.v8::Eternal.295", %"class.v8::Eternal", %"class.v8::Eternal", %"class.v8::Eternal", %"class.v8::Eternal", %"class.v8::Eternal", %"class.v8::Eternal", %"class.v8::Eternal", %"class.v8::Eternal", %"class.v8::Eternal", %"class.v8::Eternal", %"class.v8::Eternal", %"class.v8::Eternal", %"class.v8::Eternal", %"class.v8::Eternal", %"class.v8::Eternal", %"class.v8::Eternal", %"class.v8::Eternal", %"class.v8::Eternal", %"class.v8::Eternal", %"class.v8::Eternal", %"class.v8::Eternal", %"class.v8::Eternal", %"class.v8::Eternal", %"class.v8::Eternal", %"class.v8::Eternal", %"class.v8::Eternal", %"class.v8::Eternal", %"class.v8::Eternal", %"class.v8::Eternal", %"class.v8::Eternal", %"class.v8::Eternal", %"class.v8::Eternal", %"class.v8::Eternal", %"class.v8::Eternal", %"class.v8::Eternal", %"class.v8::Eternal", %"class.v8::Eternal", %"class.v8::Eternal", %"class.v8::Eternal", %"class.v8::Eternal", %"class.v8::Eternal", %"class.v8::Eternal", %"class.v8::Eternal", %"class.v8::Eternal", %"class.v8::Eternal", %"class.v8::Eternal", %"class.v8::Eternal", %"class.v8::Eternal", %"class.v8::Eternal", %"class.v8::Eternal", %"class.v8::Eternal", %"class.v8::Eternal", %"class.v8::Eternal", %"class.v8::Eternal", %"class.v8::Eternal", %"class.v8::Eternal", %"class.v8::Eternal", %"class.v8::Eternal", %"class.v8::Eternal", %"class.v8::Eternal", %"class.v8::Eternal.296", %"class.v8::Eternal.296", %"class.v8::Eternal.296", %"class.v8::Eternal.296", %"class.v8::Eternal.296", %"class.v8::Eternal.296", %"class.v8::Eternal.296", %"class.v8::Eternal.296", %"class.v8::Eternal.296", %"class.v8::Eternal.296", %"class.v8::Eternal.296", %"class.v8::Eternal.296", %"class.v8::Eternal.296", %"class.v8::Eternal.296", %"class.v8::Eternal.296", %"class.v8::Eternal.296", %"class.v8::Eternal.296", %"struct.std::array.297", ptr, ptr, ptr, ptr, ptr, %"class.std::optional", %"class.std::unique_ptr.310", %"class.std::shared_ptr.318", ptr, ptr }
%"class.std::unordered_map.273" = type { %"class.std::_Hashtable.274" }
%"class.std::_Hashtable.274" = type { ptr, i64, %"struct.std::__detail::_Hash_node_base", i64, %"struct.std::__detail::_Prime_rehash_policy", ptr }
%"class.v8::Eternal.293" = type { %"class.v8::IndirectHandleBase" }
%"class.v8::Eternal.294" = type { %"class.v8::IndirectHandleBase" }
%"class.v8::Eternal.295" = type { %"class.v8::IndirectHandleBase" }
%"class.v8::Eternal" = type { %"class.v8::IndirectHandleBase" }
%"class.v8::Eternal.296" = type { %"class.v8::IndirectHandleBase" }
%"struct.std::array.297" = type { [64 x %"class.v8::Eternal.294"] }
%"class.std::optional" = type { %"struct.std::_Optional_base" }
%"struct.std::_Optional_base" = type { %"struct.std::_Optional_payload" }
%"struct.std::_Optional_payload" = type { %"struct.std::_Optional_payload.base.307", [7 x i8] }
%"struct.std::_Optional_payload.base.307" = type { %"struct.std::_Optional_payload_base.base.306" }
%"struct.std::_Optional_payload_base.base.306" = type <{ %"union.std::_Optional_payload_base<node::SnapshotConfig>::_Storage", i8 }>
%"union.std::_Optional_payload_base<node::SnapshotConfig>::_Storage" = type { %"struct.node::SnapshotConfig" }
%"struct.node::SnapshotConfig" = type { i32, [4 x i8], %"class.std::optional.299" }
%"class.std::optional.299" = type { %"struct.std::_Optional_base.300" }
%"struct.std::_Optional_base.300" = type { %"struct.std::_Optional_payload.302" }
%"struct.std::_Optional_payload.302" = type { %"struct.std::_Optional_payload.base", [7 x i8] }
%"struct.std::_Optional_payload.base" = type { %"struct.std::_Optional_payload_base.base" }
%"struct.std::_Optional_payload_base.base" = type <{ %"union.std::_Optional_payload_base<std::__cxx11::basic_string<char>>::_Storage", i8 }>
%"union.std::_Optional_payload_base<std::__cxx11::basic_string<char>>::_Storage" = type { %"class.std::__cxx11::basic_string" }
%"class.std::unique_ptr.310" = type { %"struct.std::__uniq_ptr_data.311" }
%"struct.std::__uniq_ptr_data.311" = type { %"class.std::__uniq_ptr_impl.312" }
%"class.std::__uniq_ptr_impl.312" = type { %"class.std::tuple.313" }
%"class.std::tuple.313" = type { %"struct.std::_Tuple_impl.314" }
%"struct.std::_Tuple_impl.314" = type { %"struct.std::_Head_base.317" }
%"struct.std::_Head_base.317" = type { ptr }
%"class.std::shared_ptr.318" = type { %"class.std::__shared_ptr.319" }
%"class.std::__shared_ptr.319" = type { ptr, %"class.std::__shared_count" }

; Function Attrs: mustprogress nounwind uwtable
define linkonce_odr dso_local noundef ptr @_ZNK4node11IsolateData7isolateEv(ptr noundef nonnull align 8 dereferenceable(4192) %this) #4 comdat align 2 {
entry:
  %this.addr = alloca ptr, align 8
  store ptr %this, ptr %this.addr, align 8
  %this1 = load ptr, ptr %this.addr, align 8
  %isolate_ = getelementptr inbounds %"class.node::IsolateData", ptr %this1, i32 0, i32 438
  %0 = load ptr, ptr %isolate_, align 8
  ret ptr %0
}

; Function Attrs: mustprogress nounwind uwtable
define dso_local ptr @_ZN4node10BaseObject31MakeLazilyInitializedJSTemplateEPNS_11IsolateDataE(ptr noundef %isolate_data) #4 align 2 {
entry:
  %slot.addr.i31 = alloca ptr, align 8
  %this.addr.i.i27 = alloca ptr, align 8
  %this.addr.i28 = alloca ptr, align 8
  %slot.addr.i = alloca ptr, align 8
  %this.addr.i.i23 = alloca ptr, align 8
  %this.addr.i24 = alloca ptr, align 8
  %this.addr.i.i = alloca ptr, align 8
  %this.addr.i21 = alloca ptr, align 8
  %this.addr.i18 = alloca ptr, align 8
  %this.addr.i16 = alloca ptr, align 8
  %this.addr.i = alloca ptr, align 8
  %retval = alloca %"class.v8::Local.269", align 8
  %isolate_data.addr = alloca ptr, align 8
  %agg.tmp = alloca %"class.v8::Local.271", align 8
  %ref.tmp = alloca %"class.v8::Local.321", align 8
  store ptr %isolate_data, ptr %isolate_data.addr, align 8
  %0 = load ptr, ptr %isolate_data.addr, align 8
  %call = call noundef ptr @_ZNK4node11IsolateData7isolateEv(ptr noundef nonnull align 8 dereferenceable(4192) %0)
  call void @llvm.memset.p0.i64(ptr align 8 %agg.tmp, i8 0, i64 8, i1 false)
  store ptr %agg.tmp, ptr %this.addr.i, align 8
  %this1.i = load ptr, ptr %this.addr.i, align 8
  store ptr %this1.i, ptr %this.addr.i21, align 8
  %this1.i22 = load ptr, ptr %this.addr.i21, align 8
  store ptr %this1.i22, ptr %this.addr.i.i, align 8
  %this1.i.i = load ptr, ptr %this.addr.i.i, align 8
  store ptr null, ptr %this1.i.i, align 8
  %coerce.dive = getelementptr inbounds %"class.v8::Local.271", ptr %agg.tmp, i32 0, i32 0
  %coerce.dive1 = getelementptr inbounds %"class.v8::LocalBase.272", ptr %coerce.dive, i32 0, i32 0
  %coerce.dive2 = getelementptr inbounds %"class.v8::IndirectHandleBase", ptr %coerce.dive1, i32 0, i32 0
  %1 = load ptr, ptr %coerce.dive2, align 8
  %call3 = call ptr @_ZN4node19NewFunctionTemplateEPN2v87IsolateEPFvRKNS0_20FunctionCallbackInfoINS0_5ValueEEEENS0_5LocalINS0_9SignatureEEENS0_19ConstructorBehaviorENS0_14SideEffectTypeEPKNS0_9CFunctionE(ptr noundef %call, ptr noundef @_ZN4node10BaseObject38LazilyInitializedJSTemplateConstructorERKN2v820FunctionCallbackInfoINS1_5ValueEEE, ptr %1, i32 noundef 1, i32 noundef 0, ptr noundef null)
  %coerce.dive4 = getelementptr inbounds %"class.v8::Local.269", ptr %retval, i32 0, i32 0
  %coerce.dive5 = getelementptr inbounds %"class.v8::LocalBase.270", ptr %coerce.dive4, i32 0, i32 0
  %coerce.dive6 = getelementptr inbounds %"class.v8::IndirectHandleBase", ptr %coerce.dive5, i32 0, i32 0
  store ptr %call3, ptr %coerce.dive6, align 8
  store ptr %retval, ptr %this.addr.i16, align 8
  %this1.i17 = load ptr, ptr %this.addr.i16, align 8
  store ptr %this1.i17, ptr %this.addr.i24, align 8
  %this1.i25 = load ptr, ptr %this.addr.i24, align 8
  store ptr %this1.i25, ptr %this.addr.i.i23, align 8
  %this1.i.i26 = load ptr, ptr %this.addr.i.i23, align 8
  %2 = load ptr, ptr %this1.i.i26, align 8
  store ptr %2, ptr %slot.addr.i, align 8
  %3 = load ptr, ptr %slot.addr.i, align 8
  %call8 = call ptr @_ZN2v816FunctionTemplate16InstanceTemplateEv(ptr noundef nonnull align 1 dereferenceable(1) %3)
  %coerce.dive9 = getelementptr inbounds %"class.v8::Local.321", ptr %ref.tmp, i32 0, i32 0
  %coerce.dive10 = getelementptr inbounds %"class.v8::LocalBase.322", ptr %coerce.dive9, i32 0, i32 0
  %coerce.dive11 = getelementptr inbounds %"class.v8::IndirectHandleBase", ptr %coerce.dive10, i32 0, i32 0
  store ptr %call8, ptr %coerce.dive11, align 8
  store ptr %ref.tmp, ptr %this.addr.i18, align 8
  %this1.i19 = load ptr, ptr %this.addr.i18, align 8
  store ptr %this1.i19, ptr %this.addr.i28, align 8
  %this1.i29 = load ptr, ptr %this.addr.i28, align 8
  store ptr %this1.i29, ptr %this.addr.i.i27, align 8
  %this1.i.i30 = load ptr, ptr %this.addr.i.i27, align 8
  %4 = load ptr, ptr %this1.i.i30, align 8
  store ptr %4, ptr %slot.addr.i31, align 8
  %5 = load ptr, ptr %slot.addr.i31, align 8
  call void @_ZN2v814ObjectTemplate21SetInternalFieldCountEi(ptr noundef nonnull align 1 dereferenceable(1) %5, i32 noundef 2)
  %coerce.dive13 = getelementptr inbounds %"class.v8::Local.269", ptr %retval, i32 0, i32 0
  %coerce.dive14 = getelementptr inbounds %"class.v8::LocalBase.270", ptr %coerce.dive13, i32 0, i32 0
  %coerce.dive15 = getelementptr inbounds %"class.v8::IndirectHandleBase", ptr %coerce.dive14, i32 0, i32 0
  %6 = load ptr, ptr %coerce.dive15, align 8
  ret ptr %6
}