; Function Attrs: mustprogress nounwind uwtable
define dso_local noundef ptr @_ZN4node10BaseObject31MakeLazilyInitializedJSTemplateEPNS_11IsolateDataE(ptr nocapture noundef readonly %isolate_data) local_unnamed_addr #3 align 2 {
entry:
  %isolate_.i = getelementptr inbounds i8, ptr %isolate_data, i64 4056
  %0 = load ptr, ptr %isolate_.i, align 8
  %call3 = tail call ptr @_ZN4node19NewFunctionTemplateEPN2v87IsolateEPFvRKNS0_20FunctionCallbackInfoINS0_5ValueEEEENS0_5LocalINS0_9SignatureEEENS0_19ConstructorBehaviorENS0_14SideEffectTypeEPKNS0_9CFunctionE(ptr noundef %0, ptr noundef nonnull @_ZN4node10BaseObject38LazilyInitializedJSTemplateConstructorERKN2v820FunctionCallbackInfoINS1_5ValueEEE, ptr null, i32 noundef 1, i32 noundef 0, ptr noundef null) #17
  %call8 = tail call ptr @_ZN2v816FunctionTemplate16InstanceTemplateEv(ptr noundef nonnull align 1 dereferenceable(1) %call3) #17
  tail call void @_ZN2v814ObjectTemplate21SetInternalFieldCountEi(ptr noundef nonnull align 1 dereferenceable(1) %call8, i32 noundef 2) #17
  ret ptr %call3
}